; Function Attrs: nounwind uwtable
define internal fastcc noundef ptr @_readArrayExpr() unnamed_addr #0 {
  %1 = alloca i32, align 4
  %2 = tail call noundef ptr @palloc0(i64 noundef 32) #10
  store i32 35, ptr %2, align 4
  call void @llvm.lifetime.start.p0(i64 4, ptr nonnull %1) #10
  %3 = call ptr @pg_strtok(ptr noundef nonnull %1) #10
  %4 = call ptr @pg_strtok(ptr noundef nonnull %1) #10
  %5 = call i64 @strtoul(ptr noundef captures(none) %4, ptr noundef null, i32 noundef 10) #10
  %6 = trunc i64 %5 to i32
  %7 = getelementptr inbounds nuw i8, ptr %2, i64 4
  store i32 %6, ptr %7, align 4
  %8 = call ptr @pg_strtok(ptr noundef nonnull %1) #10
  %9 = call ptr @pg_strtok(ptr noundef nonnull %1) #10
  %10 = call i64 @strtoul(ptr noundef captures(none) %9, ptr noundef null, i32 noundef 10) #10
  %11 = trunc i64 %10 to i32
  %12 = getelementptr inbounds nuw i8, ptr %2, i64 8
  store i32 %11, ptr %12, align 8
  %13 = call ptr @pg_strtok(ptr noundef nonnull %1) #10
  %14 = call ptr @pg_strtok(ptr noundef nonnull %1) #10
  %15 = call i64 @strtoul(ptr noundef captures(none) %14, ptr noundef null, i32 noundef 10) #10
  %16 = trunc i64 %15 to i32
  %17 = getelementptr inbounds nuw i8, ptr %2, i64 12
  store i32 %16, ptr %17, align 4
  %18 = call ptr @pg_strtok(ptr noundef nonnull %1) #10
  %19 = call ptr @nodeRead(ptr noundef null, i32 noundef 0) #10
  %20 = getelementptr inbounds nuw i8, ptr %2, i64 16
  store ptr %19, ptr %20, align 8
  %21 = call ptr @pg_strtok(ptr noundef nonnull %1) #10
  %22 = call ptr @pg_strtok(ptr noundef nonnull %1) #10
  %23 = load i8, ptr %22, align 1
  %24 = icmp eq i8 %23, 116
  %25 = getelementptr inbounds nuw i8, ptr %2, i64 24
  %26 = zext i1 %24 to i8
  store i8 %26, ptr %25, align 8
  %27 = call ptr @pg_strtok(ptr noundef nonnull %1) #10
  %28 = call ptr @pg_strtok(ptr noundef nonnull %1) #10
  %29 = getelementptr inbounds nuw i8, ptr %2, i64 28
  store i32 -1, ptr %29, align 4
  call void @llvm.lifetime.end.p0(i64 4, ptr nonnull %1) #10
  ret ptr %2
}